target datalayout = "e-m:e-p270:32:32-p271:32:32-p272:64:64-i64:64-i128:128-f80:128-n8:16:32:64-S128"
target triple = "x86_64-pc-linux-gnu"

%"class.std::shared_ptr" = type { %"class.std::__shared_ptr" }
%"class.std::__shared_ptr" = type { ptr, %"class.std::__shared_count" }
%"class.std::__shared_count" = type { ptr }
%struct.tsi_ssl_server_handshaker_options = type <{ ptr, i64, ptr, i32, [4 x i8], ptr, ptr, i16, [6 x i8], ptr, i64, i32, i32, ptr, ptr, %"class.std::shared_ptr", i8, [7 x i8] }>

; Function Attrs: mustprogress nounwind uwtable
define linkonce_odr void @_ZNSt14__shared_countILN9__gnu_cxx12_Lock_policyE2EEC2Ev(ptr noundef nonnull align 8 dereferenceable(8) %0) unnamed_addr #7 comdat align 2 {
  %2 = alloca ptr, align 8
  store ptr %0, ptr %2, align 8, !tbaa !369
  %3 = load ptr, ptr %2, align 8
  %4 = getelementptr inbounds nuw %"class.std::__shared_count", ptr %3, i32 0, i32 0
  store ptr null, ptr %4, align 8, !tbaa !371
  ret void
}

; Function Attrs: mustprogress nounwind uwtable
define linkonce_odr void @_ZNSt12__shared_ptrIN9grpc_core12experimental11CrlProviderELN9__gnu_cxx12_Lock_policyE2EEC2Ev(ptr noundef nonnull align 8 dereferenceable(16) %0) unnamed_addr #7 comdat align 2 {
  %2 = alloca ptr, align 8
  store ptr %0, ptr %2, align 8, !tbaa !173
  %3 = load ptr, ptr %2, align 8
  %4 = getelementptr inbounds nuw %"class.std::__shared_ptr", ptr %3, i32 0, i32 0
  store ptr null, ptr %4, align 8, !tbaa !175
  %5 = getelementptr inbounds nuw %"class.std::__shared_ptr", ptr %3, i32 0, i32 1
  call void @_ZNSt14__shared_countILN9__gnu_cxx12_Lock_policyE2EEC2Ev(ptr noundef nonnull align 8 dereferenceable(8) %5) #3
  ret void
}

; Function Attrs: mustprogress nounwind uwtable
define linkonce_odr void @_ZNSt10shared_ptrIN9grpc_core12experimental11CrlProviderEEC2Ev(ptr noundef nonnull align 8 dereferenceable(16) %0) unnamed_addr #7 comdat align 2 {
  %2 = alloca ptr, align 8
  store ptr %0, ptr %2, align 8, !tbaa !171
  %3 = load ptr, ptr %2, align 8
  call void @_ZNSt12__shared_ptrIN9grpc_core12experimental11CrlProviderELN9__gnu_cxx12_Lock_policyE2EEC2Ev(ptr noundef nonnull align 8 dereferenceable(16) %3) #3
  ret void
}

; Function Attrs: mustprogress nounwind uwtable
define linkonce_odr void @_ZN33tsi_ssl_server_handshaker_optionsC2Ev(ptr noundef nonnull align 8 dereferenceable(113) %0) unnamed_addr #7 comdat align 2 {
  %2 = alloca ptr, align 8
  store ptr %0, ptr %2, align 8, !tbaa !188
  %3 = load ptr, ptr %2, align 8
  %4 = getelementptr inbounds nuw %struct.tsi_ssl_server_handshaker_options, ptr %3, i32 0, i32 0
  store ptr null, ptr %4, align 8, !tbaa !180
  %5 = getelementptr inbounds nuw %struct.tsi_ssl_server_handshaker_options, ptr %3, i32 0, i32 1
  store i64 0, ptr %5, align 8, !tbaa !182
  %6 = getelementptr inbounds nuw %struct.tsi_ssl_server_handshaker_options, ptr %3, i32 0, i32 2
  store ptr null, ptr %6, align 8, !tbaa !183
  %7 = getelementptr inbounds nuw %struct.tsi_ssl_server_handshaker_options, ptr %3, i32 0, i32 3
  store i32 0, ptr %7, align 8, !tbaa !184
  %8 = getelementptr inbounds nuw %struct.tsi_ssl_server_handshaker_options, ptr %3, i32 0, i32 5
  store ptr null, ptr %8, align 8, !tbaa !185
  %9 = getelementptr inbounds nuw %struct.tsi_ssl_server_handshaker_options, ptr %3, i32 0, i32 6
  store ptr null, ptr %9, align 8, !tbaa !186
  %10 = getelementptr inbounds nuw %struct.tsi_ssl_server_handshaker_options, ptr %3, i32 0, i32 7
  store i16 0, ptr %10, align 8, !tbaa !187
  %11 = getelementptr inbounds nuw %struct.tsi_ssl_server_handshaker_options, ptr %3, i32 0, i32 9
  store ptr null, ptr %11, align 8, !tbaa !190
  %12 = getelementptr inbounds nuw %struct.tsi_ssl_server_handshaker_options, ptr %3, i32 0, i32 10
  store i64 0, ptr %12, align 8, !tbaa !191
  %13 = getelementptr inbounds nuw %struct.tsi_ssl_server_handshaker_options, ptr %3, i32 0, i32 11
  store i32 0, ptr %13, align 8, !tbaa !192
  %14 = getelementptr inbounds nuw %struct.tsi_ssl_server_handshaker_options, ptr %3, i32 0, i32 12
  store i32 1, ptr %14, align 4, !tbaa !193
  %15 = getelementptr inbounds nuw %struct.tsi_ssl_server_handshaker_options, ptr %3, i32 0, i32 13
  store ptr null, ptr %15, align 8, !tbaa !194
  %16 = getelementptr inbounds nuw %struct.tsi_ssl_server_handshaker_options, ptr %3, i32 0, i32 14
  store ptr null, ptr %16, align 8, !tbaa !195
  %17 = getelementptr inbounds nuw %struct.tsi_ssl_server_handshaker_options, ptr %3, i32 0, i32 15
  call void @_ZNSt10shared_ptrIN9grpc_core12experimental11CrlProviderEEC2Ev(ptr noundef nonnull align 8 dereferenceable(16) %17) #3
  %18 = getelementptr inbounds nuw %struct.tsi_ssl_server_handshaker_options, ptr %3, i32 0, i32 16
  store i8 1, ptr %18, align 8, !tbaa !196
  ret void
}

; Function Attrs: mustprogress uwtable
define noundef i32 @_Z43tsi_create_ssl_server_handshaker_factory_exPK25tsi_ssl_pem_key_cert_pairmPKc35tsi_client_certificate_request_typeS3_PS3_tPP33tsi_ssl_server_handshaker_factory(ptr noundef %0, i64 noundef %1, ptr noundef %2, i32 noundef %3, ptr noundef %4, ptr noundef %5, i16 noundef zeroext %6, ptr noundef %7) #4 personality ptr @__gxx_personality_v0 {
  %9 = alloca ptr, align 8
  %10 = alloca i64, align 8
  %11 = alloca ptr, align 8
  %12 = alloca i32, align 4
  %13 = alloca ptr, align 8
  %14 = alloca ptr, align 8
  %15 = alloca i16, align 2
  %16 = alloca ptr, align 8
  %17 = alloca %struct.tsi_ssl_server_handshaker_options, align 8
  %18 = alloca ptr, align 8
  %19 = alloca i32, align 4
  store ptr %0, ptr %9, align 8, !tbaa !109
  store i64 %1, ptr %10, align 8, !tbaa !26
  store ptr %2, ptr %11, align 8, !tbaa !3
  store i32 %3, ptr %12, align 4, !tbaa !178
  store ptr %4, ptr %13, align 8, !tbaa !3
  store ptr %5, ptr %14, align 8, !tbaa !111
  store i16 %6, ptr %15, align 2, !tbaa !113
  store ptr %7, ptr %16, align 8, !tbaa !176
  call void @llvm.lifetime.start.p0(i64 120, ptr %17) #3
  call void @_ZN33tsi_ssl_server_handshaker_optionsC2Ev(ptr noundef nonnull align 8 dereferenceable(113) %17)
  %20 = load ptr, ptr %9, align 8, !tbaa !109
  %21 = getelementptr inbounds nuw %struct.tsi_ssl_server_handshaker_options, ptr %17, i32 0, i32 0
  store ptr %20, ptr %21, align 8, !tbaa !180
  %22 = load i64, ptr %10, align 8, !tbaa !26
  %23 = getelementptr inbounds nuw %struct.tsi_ssl_server_handshaker_options, ptr %17, i32 0, i32 1
  store i64 %22, ptr %23, align 8, !tbaa !182
  %24 = load ptr, ptr %11, align 8, !tbaa !3
  %25 = getelementptr inbounds nuw %struct.tsi_ssl_server_handshaker_options, ptr %17, i32 0, i32 2
  store ptr %24, ptr %25, align 8, !tbaa !183
  %26 = load i32, ptr %12, align 4, !tbaa !178
  %27 = getelementptr inbounds nuw %struct.tsi_ssl_server_handshaker_options, ptr %17, i32 0, i32 3
  store i32 %26, ptr %27, align 8, !tbaa !184
  %28 = load ptr, ptr %13, align 8, !tbaa !3
  %29 = getelementptr inbounds nuw %struct.tsi_ssl_server_handshaker_options, ptr %17, i32 0, i32 5
  store ptr %28, ptr %29, align 8, !tbaa !185
  %30 = load ptr, ptr %14, align 8, !tbaa !111
  %31 = getelementptr inbounds nuw %struct.tsi_ssl_server_handshaker_options, ptr %17, i32 0, i32 6
  store ptr %30, ptr %31, align 8, !tbaa !186
  %32 = load i16, ptr %15, align 2, !tbaa !113
  %33 = getelementptr inbounds nuw %struct.tsi_ssl_server_handshaker_options, ptr %17, i32 0, i32 7
  store i16 %32, ptr %33, align 8, !tbaa !187
  %34 = load ptr, ptr %16, align 8, !tbaa !176
  %35 = invoke noundef i32 @_Z53tsi_create_ssl_server_handshaker_factory_with_optionsPK33tsi_ssl_server_handshaker_optionsPP33tsi_ssl_server_handshaker_factory(ptr noundef %17, ptr noundef %34)
          to label %36 unwind label %37

36:                                               ; preds = %8
  call void @_ZN33tsi_ssl_server_handshaker_optionsD2Ev(ptr noundef nonnull align 8 dereferenceable(113) %17) #3
  call void @llvm.lifetime.end.p0(i64 120, ptr %17) #3
  ret i32 %35

37:                                               ; preds = %8
  %38 = landingpad { ptr, i32 }
          cleanup
  %39 = extractvalue { ptr, i32 } %38, 0
  store ptr %39, ptr %18, align 8
  %40 = extractvalue { ptr, i32 } %38, 1
  store i32 %40, ptr %19, align 4
  call void @_ZN33tsi_ssl_server_handshaker_optionsD2Ev(ptr noundef nonnull align 8 dereferenceable(113) %17) #3
  call void @llvm.lifetime.end.p0(i64 120, ptr %17) #3
  br label %41

41:                                               ; preds = %37
  %42 = load ptr, ptr %18, align 8
  %43 = load i32, ptr %19, align 4
  %44 = insertvalue { ptr, i32 } poison, ptr %42, 0
  %45 = insertvalue { ptr, i32 } %44, i32 %43, 1
  resume { ptr, i32 } %45
}

; Function Attrs: mustprogress uwtable
define noundef i32 @_Z40tsi_create_ssl_server_handshaker_factoryPK25tsi_ssl_pem_key_cert_pairmPKciS3_PS3_tPP33tsi_ssl_server_handshaker_factory(ptr noundef %0, i64 noundef %1, ptr noundef %2, i32 noundef %3, ptr noundef %4, ptr noundef %5, i16 noundef zeroext %6, ptr noundef %7) #4 {
  %9 = alloca ptr, align 8
  %10 = alloca i64, align 8
  %11 = alloca ptr, align 8
  %12 = alloca i32, align 4
  %13 = alloca ptr, align 8
  %14 = alloca ptr, align 8
  %15 = alloca i16, align 2
  %16 = alloca ptr, align 8
  store ptr %0, ptr %9, align 8, !tbaa !109
  store i64 %1, ptr %10, align 8, !tbaa !26
  store ptr %2, ptr %11, align 8, !tbaa !3
  store i32 %3, ptr %12, align 4, !tbaa !20
  store ptr %4, ptr %13, align 8, !tbaa !3
  store ptr %5, ptr %14, align 8, !tbaa !111
  store i16 %6, ptr %15, align 2, !tbaa !113
  store ptr %7, ptr %16, align 8, !tbaa !176
  %17 = load ptr, ptr %9, align 8, !tbaa !109
  %18 = load i64, ptr %10, align 8, !tbaa !26
  %19 = load ptr, ptr %11, align 8, !tbaa !3
  %20 = load i32, ptr %12, align 4, !tbaa !20
  %21 = icmp ne i32 %20, 0
  %22 = select i1 %21, i32 4, i32 0
  %23 = load ptr, ptr %13, align 8, !tbaa !3
  %24 = load ptr, ptr %14, align 8, !tbaa !111
  %25 = load i16, ptr %15, align 2, !tbaa !113
  %26 = load ptr, ptr %16, align 8, !tbaa !176
  %27 = call noundef i32 @_Z43tsi_create_ssl_server_handshaker_factory_exPK25tsi_ssl_pem_key_cert_pairmPKc35tsi_client_certificate_request_typeS3_PS3_tPP33tsi_ssl_server_handshaker_factory(ptr noundef %17, i64 noundef %18, ptr noundef %19, i32 noundef %22, ptr noundef %23, ptr noundef %24, i16 noundef zeroext %25, ptr noundef %26)
  ret i32 %27
}